; Function Attrs: mustprogress nofree norecurse nosync nounwind willreturn memory(readwrite, inaccessiblemem: write) uwtable
define i32 @Supp_SetSize(ptr noundef readonly captures(none) %0, i32 noundef %1) local_unnamed_addr #10 {
  %3 = getelementptr inbounds nuw i8, ptr %0, i64 144
  %4 = load ptr, ptr %3, align 8, !tbaa !19
  %5 = icmp ne i32 %1, -1
  tail call void @llvm.assume(i1 %5)
  %6 = getelementptr inbounds nuw i8, ptr %4, i64 8
  %7 = load ptr, ptr %6, align 8, !tbaa !47
  %8 = getelementptr inbounds nuw i8, ptr %4, i64 16
  %9 = load ptr, ptr %8, align 8, !tbaa !42
  %10 = getelementptr i8, ptr %9, i64 8
  %.val.i.i = load ptr, ptr %10, align 8, !tbaa !34
  %11 = sext i32 %1 to i64
  %12 = getelementptr inbounds i32, ptr %.val.i.i, i64 %11
  %13 = load i32, ptr %12, align 4, !tbaa !35
  %14 = getelementptr i8, ptr %7, i64 8
  %.val3.i.i = load ptr, ptr %14, align 8, !tbaa !34
  %15 = sext i32 %13 to i64
  %16 = getelementptr inbounds i32, ptr %.val3.i.i, i64 %15
  %17 = load i32, ptr %16, align 4, !tbaa !48
  %18 = getelementptr inbounds nuw i8, ptr %4, i64 24
  store i32 %17, ptr %18, align 8, !tbaa !50
  %19 = getelementptr inbounds nuw i8, ptr %4, i64 28
  store i32 %17, ptr %19, align 4, !tbaa !51
  %20 = getelementptr inbounds nuw i8, ptr %16, i64 8
  %21 = getelementptr inbounds nuw i8, ptr %4, i64 32
  store ptr %20, ptr %21, align 8, !tbaa !52
  ret i32 %17
}